#include <math.h>
#include <stdio.h>
#include <stdlib.h>
#include <string.h>
#include <iostream>
using namespace std;

/*
				? ? ??1000012827_1.cpp
				?    ?????
				?????20101208
				????????????????
**/
int main()
{
	char *p, a[101];											//???????????
	int flag = 0;												//???????????????1
	cin.getline(a, 100);										//??????
	p = a;														//???????p
	while(*p != '\0' )											//???????????
	{
		if((*p >= 65 && *p <= 90) || (*p >= 97 && *p <= 122))	//???????
		{
			flag = 1;											//????????????
			cout << *p;
		}
		else													//??????
		{
			if(flag == 1)										//???????????
			{
				flag = 0;										//????????
				cout << *p;
			}
			else												//??????????
			{
				p++;											//????
				continue;										//????
			}
		}
		p++;													//????
	}
	return 0;
}